target datalayout = "e-m:e-p270:32:32-p271:32:32-p272:64:64-i64:64-i128:128-f80:128-n8:16:32:64-S128"
target triple = "x86_64-pc-linux-gnu"

%struct.AVCodecContext = type { ptr, i32, i32, ptr, i32, i32, ptr, ptr, ptr, i64, i32, i32, ptr, i32, %struct.AVRational, %struct.AVRational, %struct.AVRational, i32, i32, i32, i32, i32, %struct.AVRational, i32, i32, i32, i32, i32, i32, i32, i32, i32, i32, i32, ptr, ptr, i32, float, float, float, float, float, float, float, float, float, i32, i32, i32, i32, i32, i32, i32, i32, i32, i32, i32, i32, ptr, ptr, ptr, i32, i32, i32, i32, i32, i32, i32, i32, i32, i32, %struct.AVChannelLayout, i32, i32, i32, i32, i32, i32, i32, i32, ptr, i32, i32, i32, float, float, i32, i32, i32, i32, i32, ptr, i64, i64, float, float, i32, i32, ptr, ptr, i32, i32, i32, i32, i32, ptr, ptr, ptr, ptr, i32, i32, [8 x i64], i32, i32, i32, i32, i32, i32, i32, ptr, ptr, i32, i32, i32, i32, i32, i32, i32, i32, i32, i32, ptr, ptr, i32, i32, ptr, ptr, ptr, ptr, i32, i32, i64, i32, i32, i64, ptr, i64, ptr, i32, ptr, i32 }
%struct.AVRational = type { i32, i32 }
%struct.AVChannelLayout = type { i32, i32, %union.anon.1, ptr }
%union.anon.1 = type { i64 }
%struct.EXRContext = type { ptr, ptr, ptr, %struct.ExrDSPContext, i32, i32, [4 x i32], ptr, i32, i32, i32, i32, i32, i32, i32, i32, i32, i32, %struct.EXRTileAttribute, i32, i32, i32, i32, %struct.GetByteContext, ptr, i32, ptr, i32, i32, i32, ptr, ptr, i32, ptr, i32, float, [65536 x i16], %struct.Float2HalfTables, %struct.Half2FloatTables }
%struct.ExrDSPContext = type { ptr, ptr }
%struct.EXRTileAttribute = type { i32, i32, i32, i32 }
%struct.GetByteContext = type { ptr, ptr, ptr }
%struct.Float2HalfTables = type { [512 x i16], [512 x i8] }
%struct.Half2FloatTables = type { [3072 x i32], [64 x i32], [64 x i16] }
%struct.EXRThreadData = type { ptr, i32, ptr, i32, ptr, ptr, ptr, i32, ptr, i32, ptr, i32, ptr, i32, [3 x [64 x float]], i32, i32, i32, i32, ptr, ptr, %struct.VLC }
%struct.VLC = type { i32, ptr, i32, i32 }

; Function Attrs: cold nounwind optsize uwtable
define internal i32 @decode_end(ptr noundef %0) #0 {
  %2 = alloca ptr, align 8
  %3 = alloca ptr, align 8
  %4 = alloca i32, align 4
  %5 = alloca ptr, align 8
  store ptr %0, ptr %2, align 8, !tbaa !4
  call void @llvm.lifetime.start.p0(i64 8, ptr %3) #13
  %6 = load ptr, ptr %2, align 8, !tbaa !4
  %7 = getelementptr inbounds nuw %struct.AVCodecContext, ptr %6, i32 0, i32 6
  %8 = load ptr, ptr %7, align 8, !tbaa !9
  store ptr %8, ptr %3, align 8, !tbaa !29
  call void @llvm.lifetime.start.p0(i64 4, ptr %4) #13
  store i32 0, ptr %4, align 4, !tbaa !46
  br label %9

9:                                                ; preds = %44, %1
  %10 = load i32, ptr %4, align 4, !tbaa !46
  %11 = load ptr, ptr %2, align 8, !tbaa !4
  %12 = getelementptr inbounds nuw %struct.AVCodecContext, ptr %11, i32 0, i32 116
  %13 = load i32, ptr %12, align 8, !tbaa !53
  %14 = icmp slt i32 %10, %13
  br i1 %14, label %15, label %47

15:                                               ; preds = %9
  call void @llvm.lifetime.start.p0(i64 8, ptr %5) #13
  %16 = load ptr, ptr %3, align 8, !tbaa !29
  %17 = getelementptr inbounds nuw %struct.EXRContext, ptr %16, i32 0, i32 30
  %18 = load ptr, ptr %17, align 8, !tbaa !54
  %19 = load i32, ptr %4, align 4, !tbaa !46
  %20 = sext i32 %19 to i64
  %21 = getelementptr inbounds %struct.EXRThreadData, ptr %18, i64 %20
  store ptr %21, ptr %5, align 8, !tbaa !105
  %22 = load ptr, ptr %5, align 8, !tbaa !105
  %23 = getelementptr inbounds nuw %struct.EXRThreadData, ptr %22, i32 0, i32 0
  call void @av_freep(ptr noundef %23)
  %24 = load ptr, ptr %5, align 8, !tbaa !105
  %25 = getelementptr inbounds nuw %struct.EXRThreadData, ptr %24, i32 0, i32 2
  call void @av_freep(ptr noundef %25)
  %26 = load ptr, ptr %5, align 8, !tbaa !105
  %27 = getelementptr inbounds nuw %struct.EXRThreadData, ptr %26, i32 0, i32 4
  call void @av_freep(ptr noundef %27)
  %28 = load ptr, ptr %5, align 8, !tbaa !105
  %29 = getelementptr inbounds nuw %struct.EXRThreadData, ptr %28, i32 0, i32 5
  call void @av_freep(ptr noundef %29)
  %30 = load ptr, ptr %5, align 8, !tbaa !105
  %31 = getelementptr inbounds nuw %struct.EXRThreadData, ptr %30, i32 0, i32 19
  call void @av_freep(ptr noundef %31)
  %32 = load ptr, ptr %5, align 8, !tbaa !105
  %33 = getelementptr inbounds nuw %struct.EXRThreadData, ptr %32, i32 0, i32 20
  call void @av_freep(ptr noundef %33)
  %34 = load ptr, ptr %5, align 8, !tbaa !105
  %35 = getelementptr inbounds nuw %struct.EXRThreadData, ptr %34, i32 0, i32 6
  call void @av_freep(ptr noundef %35)
  %36 = load ptr, ptr %5, align 8, !tbaa !105
  %37 = getelementptr inbounds nuw %struct.EXRThreadData, ptr %36, i32 0, i32 8
  call void @av_freep(ptr noundef %37)
  %38 = load ptr, ptr %5, align 8, !tbaa !105
  %39 = getelementptr inbounds nuw %struct.EXRThreadData, ptr %38, i32 0, i32 10
  call void @av_freep(ptr noundef %39)
  %40 = load ptr, ptr %5, align 8, !tbaa !105
  %41 = getelementptr inbounds nuw %struct.EXRThreadData, ptr %40, i32 0, i32 12
  call void @av_freep(ptr noundef %41)
  %42 = load ptr, ptr %5, align 8, !tbaa !105
  %43 = getelementptr inbounds nuw %struct.EXRThreadData, ptr %42, i32 0, i32 21
  call void @ff_vlc_free(ptr noundef %43)
  call void @llvm.lifetime.end.p0(i64 8, ptr %5) #13
  br label %44

44:                                               ; preds = %15
  %45 = load i32, ptr %4, align 4, !tbaa !46
  %46 = add nsw i32 %45, 1
  store i32 %46, ptr %4, align 4, !tbaa !46
  br label %9, !llvm.loop !106

47:                                               ; preds = %9
  %48 = load ptr, ptr %3, align 8, !tbaa !29
  %49 = getelementptr inbounds nuw %struct.EXRContext, ptr %48, i32 0, i32 30
  call void @av_freep(ptr noundef %49)
  %50 = load ptr, ptr %3, align 8, !tbaa !29
  %51 = getelementptr inbounds nuw %struct.EXRContext, ptr %50, i32 0, i32 26
  call void @av_freep(ptr noundef %51)
  %52 = load ptr, ptr %3, align 8, !tbaa !29
  %53 = getelementptr inbounds nuw %struct.EXRContext, ptr %52, i32 0, i32 33
  call void @av_freep(ptr noundef %53)
  call void @llvm.lifetime.end.p0(i64 4, ptr %4) #13
  call void @llvm.lifetime.end.p0(i64 8, ptr %3) #13
  ret i32 0
}