; Function Attrs: cold nounwind optsize uwtable
define internal noundef i32 @decode_end(ptr noundef readonly captures(none) %0) #0 {
  %2 = getelementptr inbounds nuw i8, ptr %0, i64 32
  %3 = load ptr, ptr %2, align 8, !tbaa !4
  %4 = getelementptr inbounds nuw i8, ptr %0, i64 656
  %5 = load i32, ptr %4, align 8, !tbaa !48
  %6 = icmp sgt i32 %5, 0
  br i1 %6, label %.lr.ph, label %._crit_edge

.lr.ph:                                           ; preds = %1
  %7 = getelementptr inbounds nuw i8, ptr %3, i64 208
  br label %8

8:                                                ; preds = %.lr.ph, %8
  %indvars.iv = phi i64 [ 0, %.lr.ph ], [ %indvars.iv.next, %8 ]
  %9 = load ptr, ptr %7, align 8, !tbaa !49
  %10 = getelementptr inbounds nuw %struct.EXRThreadData, ptr %9, i64 %indvars.iv
  tail call void @av_freep(ptr noundef %10) #14
  %11 = getelementptr inbounds nuw i8, ptr %10, i64 16
  tail call void @av_freep(ptr noundef nonnull %11) #14
  %12 = getelementptr inbounds nuw i8, ptr %10, i64 32
  tail call void @av_freep(ptr noundef nonnull %12) #14
  %13 = getelementptr inbounds nuw i8, ptr %10, i64 40
  tail call void @av_freep(ptr noundef nonnull %13) #14
  %14 = getelementptr inbounds nuw i8, ptr %10, i64 896
  tail call void @av_freep(ptr noundef nonnull %14) #14
  %15 = getelementptr inbounds nuw i8, ptr %10, i64 904
  tail call void @av_freep(ptr noundef nonnull %15) #14
  %16 = getelementptr inbounds nuw i8, ptr %10, i64 48
  tail call void @av_freep(ptr noundef nonnull %16) #14
  %17 = getelementptr inbounds nuw i8, ptr %10, i64 64
  tail call void @av_freep(ptr noundef nonnull %17) #14
  %18 = getelementptr inbounds nuw i8, ptr %10, i64 80
  tail call void @av_freep(ptr noundef nonnull %18) #14
  %19 = getelementptr inbounds nuw i8, ptr %10, i64 96
  tail call void @av_freep(ptr noundef nonnull %19) #14
  %20 = getelementptr inbounds nuw i8, ptr %10, i64 912
  tail call void @ff_vlc_free(ptr noundef nonnull %20) #14
  %indvars.iv.next = add nuw nsw i64 %indvars.iv, 1
  %21 = load i32, ptr %4, align 8, !tbaa !48
  %22 = sext i32 %21 to i64
  %23 = icmp slt i64 %indvars.iv.next, %22
  br i1 %23, label %8, label %._crit_edge, !llvm.loop !124

._crit_edge:                                      ; preds = %8, %1
  %24 = getelementptr inbounds nuw i8, ptr %3, i64 208
  tail call void @av_freep(ptr noundef nonnull %24) #14
  %25 = getelementptr inbounds nuw i8, ptr %3, i64 184
  tail call void @av_freep(ptr noundef nonnull %25) #14
  %26 = getelementptr inbounds nuw i8, ptr %3, i64 232
  tail call void @av_freep(ptr noundef nonnull %26) #14
  ret i32 0
}